; ModuleID = '20/345.c'
source_filename = "20/345.c"
target datalayout = "e-m:e-p270:32:32-p271:32:32-p272:64:64-i64:64-f80:128-n8:16:32:64-S128"
target triple = "x86_64-pc-linux-gnu"

@.str = private unnamed_addr constant [5 x i8] c"%s%s\00", align 1
@.str.1 = private unnamed_addr constant [4 x i8] c"%s\0A\00", align 1

; Function Attrs: noinline nounwind uwtable
define dso_local void @main() #0 {
  %1 = alloca [11 x i8], align 1
  %2 = alloca [4 x i8], align 1
  %3 = alloca [15 x i8], align 1
  %4 = alloca i32, align 4
  %5 = alloca i32, align 4
  %6 = alloca i32, align 4
  %7 = alloca i32, align 4
  br label %8

8:                                                ; preds = %94, %0
  %9 = getelementptr inbounds [11 x i8], [11 x i8]* %1, i64 0, i64 0
  %10 = getelementptr inbounds [4 x i8], [4 x i8]* %2, i64 0, i64 0
  %11 = call i32 (i8*, ...) @__isoc99_scanf(i8* getelementptr inbounds ([5 x i8], [5 x i8]* @.str, i64 0, i64 0), i8* %9, i8* %10)
  %12 = icmp ne i32 %11, -1
  br i1 %12, label %13, label %101

13:                                               ; preds = %8
  %14 = getelementptr inbounds [11 x i8], [11 x i8]* %1, i64 0, i64 0
  %15 = load i8, i8* %14, align 1
  %16 = sext i8 %15 to i32
  store i32 %16, i32* %6, align 4
  store i32 0, i32* %4, align 4
  br label %17

17:                                               ; preds = %40, %13
  %18 = load i32, i32* %4, align 4
  %19 = sext i32 %18 to i64
  %20 = getelementptr inbounds [11 x i8], [11 x i8]* %1, i64 0, i64 %19
  %21 = load i8, i8* %20, align 1
  %22 = sext i8 %21 to i32
  %23 = icmp ne i32 %22, 0
  br i1 %23, label %24, label %43

24:                                               ; preds = %17
  %25 = load i32, i32* %4, align 4
  %26 = sext i32 %25 to i64
  %27 = getelementptr inbounds [11 x i8], [11 x i8]* %1, i64 0, i64 %26
  %28 = load i8, i8* %27, align 1
  %29 = sext i8 %28 to i32
  %30 = load i32, i32* %6, align 4
  %31 = icmp sgt i32 %29, %30
  br i1 %31, label %32, label %39

32:                                               ; preds = %24
  %33 = load i32, i32* %4, align 4
  %34 = sext i32 %33 to i64
  %35 = getelementptr inbounds [11 x i8], [11 x i8]* %1, i64 0, i64 %34
  %36 = load i8, i8* %35, align 1
  %37 = sext i8 %36 to i32
  store i32 %37, i32* %6, align 4
  %38 = load i32, i32* %4, align 4
  store i32 %38, i32* %5, align 4
  br label %39

39:                                               ; preds = %32, %24
  br label %40

40:                                               ; preds = %39
  %41 = load i32, i32* %4, align 4
  %42 = add nsw i32 %41, 1
  store i32 %42, i32* %4, align 4
  br label %17

43:                                               ; preds = %17
  %44 = load i32, i32* %4, align 4
  store i32 %44, i32* %7, align 4
  %45 = getelementptr inbounds [15 x i8], [15 x i8]* %3, i64 0, i64 0
  %46 = getelementptr inbounds [11 x i8], [11 x i8]* %1, i64 0, i64 0
  %47 = load i32, i32* %5, align 4
  %48 = add nsw i32 %47, 1
  %49 = sext i32 %48 to i64
  %50 = call i8* @strncpy(i8* %45, i8* %46, i64 %49) #3
  store i32 0, i32* %4, align 4
  br label %51

51:                                               ; preds = %69, %43
  %52 = load i32, i32* %4, align 4
  %53 = sext i32 %52 to i64
  %54 = getelementptr inbounds [4 x i8], [4 x i8]* %2, i64 0, i64 %53
  %55 = load i8, i8* %54, align 1
  %56 = sext i8 %55 to i32
  %57 = icmp ne i32 %56, 0
  br i1 %57, label %58, label %72

58:                                               ; preds = %51
  %59 = load i32, i32* %4, align 4
  %60 = sext i32 %59 to i64
  %61 = getelementptr inbounds [4 x i8], [4 x i8]* %2, i64 0, i64 %60
  %62 = load i8, i8* %61, align 1
  %63 = load i32, i32* %5, align 4
  %64 = add nsw i32 %63, 1
  %65 = load i32, i32* %4, align 4
  %66 = add nsw i32 %64, %65
  %67 = sext i32 %66 to i64
  %68 = getelementptr inbounds [15 x i8], [15 x i8]* %3, i64 0, i64 %67
  store i8 %62, i8* %68, align 1
  br label %69

69:                                               ; preds = %58
  %70 = load i32, i32* %4, align 4
  %71 = add nsw i32 %70, 1
  store i32 %71, i32* %4, align 4
  br label %51

72:                                               ; preds = %51
  %73 = load i32, i32* %5, align 4
  %74 = add nsw i32 %73, 1
  store i32 %74, i32* %4, align 4
  br label %75

75:                                               ; preds = %91, %72
  %76 = load i32, i32* %4, align 4
  %77 = sext i32 %76 to i64
  %78 = getelementptr inbounds [11 x i8], [11 x i8]* %1, i64 0, i64 %77
  %79 = load i8, i8* %78, align 1
  %80 = sext i8 %79 to i32
  %81 = icmp ne i32 %80, 0
  br i1 %81, label %82, label %94

82:                                               ; preds = %75
  %83 = load i32, i32* %4, align 4
  %84 = sext i32 %83 to i64
  %85 = getelementptr inbounds [11 x i8], [11 x i8]* %1, i64 0, i64 %84
  %86 = load i8, i8* %85, align 1
  %87 = load i32, i32* %4, align 4
  %88 = add nsw i32 %87, 3
  %89 = sext i32 %88 to i64
  %90 = getelementptr inbounds [15 x i8], [15 x i8]* %3, i64 0, i64 %89
  store i8 %86, i8* %90, align 1
  br label %91

91:                                               ; preds = %82
  %92 = load i32, i32* %4, align 4
  %93 = add nsw i32 %92, 1
  store i32 %93, i32* %4, align 4
  br label %75

94:                                               ; preds = %75
  %95 = load i32, i32* %7, align 4
  %96 = add nsw i32 %95, 3
  %97 = sext i32 %96 to i64
  %98 = getelementptr inbounds [15 x i8], [15 x i8]* %3, i64 0, i64 %97
  store i8 0, i8* %98, align 1
  %99 = getelementptr inbounds [15 x i8], [15 x i8]* %3, i64 0, i64 0
  %100 = call i32 (i8*, ...) @printf(i8* getelementptr inbounds ([4 x i8], [4 x i8]* @.str.1, i64 0, i64 0), i8* %99)
  br label %8

101:                                              ; preds = %8
  ret void
}

declare dso_local i32 @__isoc99_scanf(i8*, ...) #1

; Function Attrs: nounwind
declare dso_local i8* @strncpy(i8*, i8*, i64) #2

declare dso_local i32 @printf(i8*, ...) #1


!llvm.module.flags = !{!0}
!llvm.ident = !{!1}

!0 = !{i32 1, !"wchar_size", i32 4}
!1 = !{!"clang version 10.0.0-4ubuntu1 "}
